target datalayout = "e-m:e-p270:32:32-p271:32:32-p272:64:64-i64:64-i128:128-f80:128-n8:16:32:64-S128"
target triple = "x86_64-pc-linux-gnu"

%struct._ir_strtab = type { ptr, i32, i32, i32, i32, ptr, i32, i32 }
%struct._ir_strtab_bucket = type { i32, i32, ptr, i32, i32 }

; Function Attrs: nounwind uwtable
define internal i32 @ir_str_hash(ptr noundef %0, i64 noundef %1) #0 {
  %3 = alloca ptr, align 8
  %4 = alloca i64, align 8
  %5 = alloca i64, align 8
  %6 = alloca i32, align 4
  store ptr %0, ptr %3, align 8, !tbaa !11
  store i64 %1, ptr %4, align 8, !tbaa !30
  call void @llvm.lifetime.start.p0(i64 8, ptr %5) #10
  call void @llvm.lifetime.start.p0(i64 4, ptr %6) #10
  store i32 5381, ptr %6, align 4, !tbaa !9
  store i64 0, ptr %5, align 8, !tbaa !30
  br label %7

7:                                                ; preds = %22, %2
  %8 = load i64, ptr %5, align 8, !tbaa !30
  %9 = load i64, ptr %4, align 8, !tbaa !30
  %10 = icmp ult i64 %8, %9
  br i1 %10, label %11, label %25

11:                                               ; preds = %7
  %12 = load i32, ptr %6, align 4, !tbaa !9
  %13 = shl i32 %12, 5
  %14 = load i32, ptr %6, align 4, !tbaa !9
  %15 = add i32 %13, %14
  %16 = load ptr, ptr %3, align 8, !tbaa !11
  %17 = load i8, ptr %16, align 1, !tbaa !32
  %18 = sext i8 %17 to i32
  %19 = add i32 %15, %18
  store i32 %19, ptr %6, align 4, !tbaa !9
  %20 = load ptr, ptr %3, align 8, !tbaa !11
  %21 = getelementptr inbounds nuw i8, ptr %20, i32 1
  store ptr %21, ptr %3, align 8, !tbaa !11
  br label %22

22:                                               ; preds = %11
  %23 = load i64, ptr %5, align 8, !tbaa !30
  %24 = add i64 %23, 1
  store i64 %24, ptr %5, align 8, !tbaa !30
  br label %7

25:                                               ; preds = %7
  %26 = load i32, ptr %6, align 4, !tbaa !9
  %27 = or i32 %26, 268435456
  call void @llvm.lifetime.end.p0(i64 4, ptr %6) #10
  call void @llvm.lifetime.end.p0(i64 8, ptr %5) #10
  ret i32 %27
}

; Function Attrs: nounwind uwtable
define hidden i32 @ir_strtab_find(ptr noundef %0, ptr noundef %1, i32 noundef %2) #0 {
  %4 = alloca i32, align 4
  %5 = alloca ptr, align 8
  %6 = alloca ptr, align 8
  %7 = alloca i32, align 4
  %8 = alloca i32, align 4
  %9 = alloca ptr, align 8
  %10 = alloca i32, align 4
  %11 = alloca ptr, align 8
  %12 = alloca i32, align 4
  store ptr %0, ptr %5, align 8, !tbaa !4
  store ptr %1, ptr %6, align 8, !tbaa !11
  store i32 %2, ptr %7, align 4, !tbaa !9
  call void @llvm.lifetime.start.p0(i64 4, ptr %8) #10
  %13 = load ptr, ptr %6, align 8, !tbaa !11
  %14 = load i32, ptr %7, align 4, !tbaa !9
  %15 = zext i32 %14 to i64
  %16 = call i32 @ir_str_hash(ptr noundef %13, i64 noundef %15)
  store i32 %16, ptr %8, align 4, !tbaa !9
  call void @llvm.lifetime.start.p0(i64 8, ptr %9) #10
  %17 = load ptr, ptr %5, align 8, !tbaa !4
  %18 = getelementptr inbounds nuw %struct._ir_strtab, ptr %17, i32 0, i32 0
  %19 = load ptr, ptr %18, align 8, !tbaa !13
  store ptr %19, ptr %9, align 8, !tbaa !11
  call void @llvm.lifetime.start.p0(i64 4, ptr %10) #10
  %20 = load ptr, ptr %9, align 8, !tbaa !11
  %21 = load i32, ptr %8, align 4, !tbaa !9
  %22 = load ptr, ptr %5, align 8, !tbaa !4
  %23 = getelementptr inbounds nuw %struct._ir_strtab, ptr %22, i32 0, i32 1
  %24 = load i32, ptr %23, align 8, !tbaa !15
  %25 = or i32 %21, %24
  %26 = sext i32 %25 to i64
  %27 = getelementptr inbounds i32, ptr %20, i64 %26
  %28 = load i32, ptr %27, align 4, !tbaa !9
  store i32 %28, ptr %10, align 4, !tbaa !9
  call void @llvm.lifetime.start.p0(i64 8, ptr %11) #10
  br label %29

29:                                               ; preds = %61, %3
  %30 = load i32, ptr %10, align 4, !tbaa !9
  %31 = icmp ne i32 %30, -1
  br i1 %31, label %32, label %65

32:                                               ; preds = %29
  %33 = load ptr, ptr %9, align 8, !tbaa !11
  %34 = load i32, ptr %10, align 4, !tbaa !9
  %35 = zext i32 %34 to i64
  %36 = getelementptr inbounds nuw i8, ptr %33, i64 %35
  store ptr %36, ptr %11, align 8, !tbaa !22
  %37 = load ptr, ptr %11, align 8, !tbaa !22
  %38 = getelementptr inbounds nuw %struct._ir_strtab_bucket, ptr %37, i32 0, i32 0
  %39 = load i32, ptr %38, align 8, !tbaa !24
  %40 = load i32, ptr %8, align 4, !tbaa !9
  %41 = icmp eq i32 %39, %40
  br i1 %41, label %42, label %61

42:                                               ; preds = %32
  %43 = load ptr, ptr %11, align 8, !tbaa !22
  %44 = getelementptr inbounds nuw %struct._ir_strtab_bucket, ptr %43, i32 0, i32 1
  %45 = load i32, ptr %44, align 4, !tbaa !26
  %46 = load i32, ptr %7, align 4, !tbaa !9
  %47 = icmp eq i32 %45, %46
  br i1 %47, label %48, label %61

48:                                               ; preds = %42
  %49 = load ptr, ptr %11, align 8, !tbaa !22
  %50 = getelementptr inbounds nuw %struct._ir_strtab_bucket, ptr %49, i32 0, i32 2
  %51 = load ptr, ptr %50, align 8, !tbaa !27
  %52 = load ptr, ptr %6, align 8, !tbaa !11
  %53 = load i32, ptr %7, align 4, !tbaa !9
  %54 = zext i32 %53 to i64
  %55 = call i32 @memcmp(ptr noundef %51, ptr noundef %52, i64 noundef %54) #12
  %56 = icmp eq i32 %55, 0
  br i1 %56, label %57, label %61

57:                                               ; preds = %48
  %58 = load ptr, ptr %11, align 8, !tbaa !22
  %59 = getelementptr inbounds nuw %struct._ir_strtab_bucket, ptr %58, i32 0, i32 4
  %60 = load i32, ptr %59, align 4, !tbaa !28
  store i32 %60, ptr %4, align 4
  store i32 1, ptr %12, align 4
  br label %66

61:                                               ; preds = %48, %42, %32
  %62 = load ptr, ptr %11, align 8, !tbaa !22
  %63 = getelementptr inbounds nuw %struct._ir_strtab_bucket, ptr %62, i32 0, i32 3
  %64 = load i32, ptr %63, align 8, !tbaa !29
  store i32 %64, ptr %10, align 4, !tbaa !9
  br label %29

65:                                               ; preds = %29
  store i32 0, ptr %4, align 4
  store i32 1, ptr %12, align 4
  br label %66

66:                                               ; preds = %65, %57
  call void @llvm.lifetime.end.p0(i64 8, ptr %11) #10
  call void @llvm.lifetime.end.p0(i64 4, ptr %10) #10
  call void @llvm.lifetime.end.p0(i64 8, ptr %9) #10
  call void @llvm.lifetime.end.p0(i64 4, ptr %8) #10
  %67 = load i32, ptr %4, align 4
  ret i32 %67
}