; Function Attrs: nofree nounwind memory(read, inaccessiblemem: none) uwtable
define hidden i32 @ir_strtab_find(ptr noundef readonly captures(none) %0, ptr noundef readonly captures(none) %1, i32 noundef %2) local_unnamed_addr #3 {
  %4 = zext i32 %2 to i64
  %.not.i = icmp eq i32 %2, 0
  br i1 %.not.i, label %ir_str_hash.exit, label %.lr.ph.i

.lr.ph.i:                                         ; preds = %3, %.lr.ph.i
  %.011.i = phi i32 [ %8, %.lr.ph.i ], [ 5381, %3 ]
  %.0710.i = phi i64 [ %10, %.lr.ph.i ], [ 0, %3 ]
  %.089.i = phi ptr [ %9, %.lr.ph.i ], [ %1, %3 ]
  %5 = mul i32 %.011.i, 33
  %6 = load i8, ptr %.089.i, align 1, !tbaa !18
  %7 = sext i8 %6 to i32
  %8 = add i32 %5, %7
  %9 = getelementptr inbounds nuw i8, ptr %.089.i, i64 1
  %10 = add nuw nsw i64 %.0710.i, 1
  %exitcond.not.i = icmp eq i64 %10, %4
  br i1 %exitcond.not.i, label %._crit_edge.loopexit.i, label %.lr.ph.i

._crit_edge.loopexit.i:                           ; preds = %.lr.ph.i
  %11 = or i32 %8, 268435456
  br label %ir_str_hash.exit

ir_str_hash.exit:                                 ; preds = %3, %._crit_edge.loopexit.i
  %.0.lcssa.i = phi i32 [ 268440837, %3 ], [ %11, %._crit_edge.loopexit.i ]
  %12 = load ptr, ptr %0, align 8, !tbaa !4
  %13 = getelementptr inbounds nuw i8, ptr %0, i64 8
  %14 = load i32, ptr %13, align 8, !tbaa !11
  %15 = or i32 %14, %.0.lcssa.i
  %16 = sext i32 %15 to i64
  %17 = getelementptr inbounds i32, ptr %12, i64 %16
  %.01820 = load i32, ptr %17, align 4, !tbaa !19
  %.not21 = icmp eq i32 %.01820, -1
  br i1 %.not21, label %.loopexit, label %.lr.ph

.lr.ph:                                           ; preds = %ir_str_hash.exit, %33
  %.01822 = phi i32 [ %.018, %33 ], [ %.01820, %ir_str_hash.exit ]
  %18 = zext i32 %.01822 to i64
  %19 = getelementptr inbounds nuw i8, ptr %12, i64 %18
  %20 = load i32, ptr %19, align 8, !tbaa !20
  %21 = icmp eq i32 %20, %.0.lcssa.i
  br i1 %21, label %22, label %33

22:                                               ; preds = %.lr.ph
  %23 = getelementptr inbounds nuw i8, ptr %19, i64 4
  %24 = load i32, ptr %23, align 4, !tbaa !22
  %25 = icmp eq i32 %24, %2
  br i1 %25, label %26, label %33

26:                                               ; preds = %22
  %27 = getelementptr inbounds nuw i8, ptr %19, i64 8
  %28 = load ptr, ptr %27, align 8, !tbaa !23
  %bcmp = tail call i32 @bcmp(ptr %28, ptr %1, i64 %4)
  %29 = icmp eq i32 %bcmp, 0
  br i1 %29, label %30, label %33

30:                                               ; preds = %26
  %31 = getelementptr inbounds nuw i8, ptr %19, i64 20
  %32 = load i32, ptr %31, align 4, !tbaa !24
  br label %.loopexit

33:                                               ; preds = %26, %22, %.lr.ph
  %34 = getelementptr inbounds nuw i8, ptr %19, i64 16
  %.018 = load i32, ptr %34, align 4, !tbaa !19
  %.not = icmp eq i32 %.018, -1
  br i1 %.not, label %.loopexit, label %.lr.ph

.loopexit:                                        ; preds = %33, %ir_str_hash.exit, %30
  %.0 = phi i32 [ %32, %30 ], [ 0, %ir_str_hash.exit ], [ 0, %33 ]
  ret i32 %.0
}